Certificate:
    Data:
        Version: 3 (0x2)
        Serial Number: 1 (0x1)
    Signature Algorithm: sha256WithRSAEncryption
        Issuer: C=US, ST=Denial, L=Springfield, O=Dis, CN=www.example.com
        Validity
            Not Before: Oct  3 04:10:31 2016 GMT
            Not After : Oct  3 04:10:31 2017 GMT
        Subject: C=US, ST=Denial, O=Dis, CN=www.example.com
        Subject Public Key Info:
            Public Key Algorithm: rsaEncryption
                Public-Key: (2048 bit)
                Modulus:
                    00:d1:44:91:95:48:4f:f9:45:30:00:8d:70:a8:d1:
                    54:37:ba:97:02:9d:86:56:71:67:5b:8c:d3:19:4b:
                    20:7d:ae:83:cd:9a:9c:d8:66:32:61:71:cf:1d:85:
                    d2:3f:2a:b5:6a:c0:2f:06:c3:1a:22:ed:70:2d:a5:
                    6e:d6:3d:c3:47:3d:f1:a2:c9:6f:e8:cd:5c:41:db:
                    a3:e7:94:a4:3e:b8:a2:58:4b:6d:2e:88:7c:9c:39:
                    96:71:2e:62:c7:e6:9b:fc:fb:f0:b8:1b:cf:8a:e0:
                    27:7d:ed:b8:ef:8f:f0:d6:b6:6a:4f:16:ce:33:82:
                    0b:a8:24:14:d6:d2:fa:f0:0c:4d:06:b9:4d:a8:4c:
                    f8:36:36:70:2c:c2:1d:f1:88:3f:0f:6e:b2:d2:ad:
                    14:2a:aa:2e:47:32:31:93:61:06:a3:8a:99:51:05:
                    7e:06:20:bd:0c:c1:71:01:b2:5e:1f:75:52:94:56:
                    0d:d2:e6:81:f1:91:c3:e9:c0:1e:f2:df:23:68:63:
                    37:28:2f:dc:20:31:f6:d7:bd:9d:75:64:c8:2e:38:
                    7f:0c:4f:1b:62:b3:b9:c0:a7:6d:43:a1:6a:63:7c:
                    62:aa:d4:1b:ff:32:46:51:71:0d:c6:b6:49:14:8e:
                    81:d3:ab:cf:80:74:9f:c1:50:57:ba:e7:70:91:fb:
                    f6:d1
                Exponent: 65537 (0x10001)
        X509v3 extensions:
            X509v3 Basic Constraints: 
                CA:FALSE
            Netscape Comment: 
                OpenSSL Generated Certificate
            X509v3 Subject Key Identifier: 
                BC:BC:EC:7D:EE:F6:D3:AF:91:F1:4A:BB:3E:27:1C:4D:81:01:AB:5F
            X509v3 Authority Key Identifier: 
                keyid:74:26:9E:C1:A6:F1:BC:85:6D:F9:7E:94:25:12:62:F2:73:9D:2F:0B

    Signature Algorithm: sha256WithRSAEncryption
         09:f7:a1:ce:4c:ad:22:7d:aa:d7:8d:84:47:37:70:52:27:f4:
         21:a7:43:88:61:18:ab:c9:d9:4d:b5:f7:26:64:85:0b:a2:32:
         ba:08:1a:32:da:3d:8d:67:ca:17:02:65:94:eb:78:6a:ec:b2:
         8e:64:84:18:52:ee:c7:c1:52:c8:34:ae:65:c7:75:88:31:77:
         fb:11:43:e3:63:6c:00:58:ad:08:fc:04:2b:de:00:50:ee:51:
         58:00:3a:3c:73:44:ce:fa:0d:c3:d3:a2:d2:a2:b4:be:58:9a:
         9d:a5:ab:25:d8:c4:a0:7f:ea:5a:00:8c:fc:d6:71:c2:7c:f8:
         2d:d7:cb:91:d9:d0:47:a7:85:10:c5:00:2b:e5:c7:2c:49:e0:
         78:62:73:b9:b5:f3:18:f7:0a:87:ff:32:7e:73:da:1f:4d:fb:
         f6:a8:b2:67:31:cb:a4:64:b7:ec:76:51:23:95:6f:dc:e3:e5:
         9e:32:7d:f9:7b:eb:fa:6f:77:94:80:ec:91:c5:0e:e6:e7:33:
         fb:5b:54:e6:da:60:b7:b8:d3:79:e3:50:3b:79:27:8d:10:9c:
         cc:3a:fb:bc:a1:84:9e:68:1f:ce:bf:75:15:15:4e:2d:9b:ba:
         62:6b:da:07:dd:f9:ee:52:93:e9:2f:9b:1f:22:5c:01:d8:c8:
         ba:1f:be:f0
-----BEGIN CERTIFICATE-----
MIIDmDCCAoCgAwIBAgIBATANBgkqhkiG9w0BAQsFADBcMQswCQYDVQQGEwJVUzEP
MA0GA1UECAwGRGVuaWFsMRQwEgYDVQQHDAtTcHJpbmdmaWVsZDEMMAoGA1UECgwD
RGlzMRgwFgYDVQQDDA93d3cuZXhhbXBsZS5jb20wHhcNMTYxMDAzMDQxMDMxWhcN
MTcxMDAzMDQxMDMxWjBGMQswCQYDVQQGEwJVUzEPMA0GA1UECAwGRGVuaWFsMQww
CgYDVQQKDANEaXMxGDAWBgNVBAMMD3d3dy5leGFtcGxlLmNvbTCCASIwDQYJKoZI
hvcNAQEBBQADggEPADCCAQoCggEBANFEkZVIT/lFMACNcKjRVDe6lwKdhlZxZ1uM
0xlLIH2ug82anNhmMmFxzx2F0j8qtWrALwbDGiLtcC2lbtY9w0c98aLJb+jNXEHb
o+eUpD64olhLbS6IfJw5lnEuYsfmm/z78Lgbz4rgJ33tuO+P8Na2ak8WzjOCC6gk
FNbS+vAMTQa5TahM+DY2cCzCHfGIPw9ustKtFCqqLkcyMZNhBqOKmVEFfgYgvQzB
cQGyXh91UpRWDdLmgfGRw+nAHvLfI2hjNygv3CAx9te9nXVkyC44fwxPG2KzucCn
bUOhamN8YqrUG/8yRlFxDca2SRSOgdOrz4B0n8FQV7rncJH79tECAwEAAaN7MHkw
CQYDVR0TBAIwADAsBglghkgBhvhCAQ0EHxYdT3BlblNTTCBHZW5lcmF0ZWQgQ2Vy
dGlmaWNhdGUwHQYDVR0OBBYEFLy87H3u9tOvkfFKuz4nHE2BAatfMB8GA1UdIwQY
MBaAFHQmnsGm8byFbfl+lCUSYvJznS8LMA0GCSqGSIb3DQEBCwUAA4IBAQAJ96HO
TK0ifarXjYRHN3BSJ/Qhp0OIYRirydlNtfcmZIULojK6CBoy2j2NZ8oXAmWU63hq
7LKOZIQYUu7HwVLINK5lx3WIMXf7EUPjY2wAWK0I/AQr3gBQ7lFYADo8c0TO+g3D
06LSorS+WJqdpasl2MSgf+paAIz81nHCfPgt18uR2dBHp4UQxQAr5ccsSeB4YnO5
tfMY9wqH/zJ+c9ofTfv2qLJnMcukZLfsdlEjlW/c4+WeMn35e+v6b3eUgOyRxQ7m
5zP7W1Tm2mC3uNN541A7eSeNEJzMOvu8oYSeaB/Ov3UVFU4tm7pia9oH3fnuUpPp
L5sfIlwB2Mi6H77w
-----END CERTIFICATE-----
